; Function Attrs: nounwind uwtable
define void @Llb_ManClusterOne(ptr noundef readonly captures(none) %0, i32 noundef %1, i32 noundef %2) local_unnamed_addr #1 {
  %4 = getelementptr inbounds nuw i8, ptr %0, i64 24
  %5 = load ptr, ptr %4, align 8, !tbaa !52
  %6 = sext i32 %1 to i64
  %7 = getelementptr inbounds ptr, ptr %5, i64 %6
  %8 = load ptr, ptr %7, align 8, !tbaa !53
  %9 = sext i32 %2 to i64
  %10 = getelementptr inbounds ptr, ptr %5, i64 %9
  %11 = load ptr, ptr %10, align 8, !tbaa !53
  %12 = tail call ptr @Llb_ManGroupsCombine(ptr noundef %8, ptr noundef %11) #5
  %13 = getelementptr inbounds nuw i8, ptr %0, i64 8
  %14 = load i32, ptr %13, align 8, !tbaa !3
  %15 = icmp sgt i32 %14, 0
  br i1 %15, label %.lr.ph.i, label %Llb_MtrCombineSelectedColumns.exit

.lr.ph.i:                                         ; preds = %3
  %16 = getelementptr inbounds nuw i8, ptr %0, i64 40
  %17 = getelementptr inbounds nuw i8, ptr %0, i64 32
  %18 = getelementptr inbounds nuw i8, ptr %0, i64 16
  br label %19

19:                                               ; preds = %57, %.lr.ph.i
  %indvars.iv.i = phi i64 [ 0, %.lr.ph.i ], [ %indvars.iv.next.i, %57 ]
  %20 = load ptr, ptr %16, align 8, !tbaa !15
  %21 = getelementptr inbounds ptr, ptr %20, i64 %6
  %22 = load ptr, ptr %21, align 8, !tbaa !16
  %23 = getelementptr inbounds nuw i8, ptr %22, i64 %indvars.iv.i
  %24 = load i8, ptr %23, align 1, !tbaa !17
  %25 = icmp eq i8 %24, 1
  br i1 %25, label %26, label %thread-pre-split.i

26:                                               ; preds = %19
  %27 = getelementptr inbounds ptr, ptr %20, i64 %9
  %28 = load ptr, ptr %27, align 8, !tbaa !16
  %29 = getelementptr inbounds nuw i8, ptr %28, i64 %indvars.iv.i
  %30 = load i8, ptr %29, align 1, !tbaa !17
  %31 = icmp eq i8 %30, 1
  br i1 %31, label %32, label %thread-pre-split.thread.i

32:                                               ; preds = %26
  %33 = load ptr, ptr %17, align 8, !tbaa !18
  %34 = getelementptr inbounds nuw i32, ptr %33, i64 %indvars.iv.i
  %35 = load i32, ptr %34, align 4, !tbaa !19
  %36 = add nsw i32 %35, -1
  store i32 %36, ptr %34, align 4, !tbaa !19
  %.pr.pre.i = load i8, ptr %23, align 1, !tbaa !17
  br label %thread-pre-split.i

thread-pre-split.i:                               ; preds = %32, %19
  %37 = phi i8 [ %24, %19 ], [ %.pr.pre.i, %32 ]
  %38 = icmp eq i8 %37, 0
  br i1 %38, label %39, label %thread-pre-split.thread.i

39:                                               ; preds = %thread-pre-split.i
  %40 = getelementptr inbounds ptr, ptr %20, i64 %9
  %41 = load ptr, ptr %40, align 8, !tbaa !16
  %42 = getelementptr inbounds nuw i8, ptr %41, i64 %indvars.iv.i
  %43 = load i8, ptr %42, align 1, !tbaa !17
  %44 = icmp eq i8 %43, 1
  br i1 %44, label %45, label %thread-pre-split.thread.i

45:                                               ; preds = %39
  store i8 1, ptr %23, align 1, !tbaa !17
  %46 = load ptr, ptr %18, align 8, !tbaa !24
  %47 = getelementptr inbounds i32, ptr %46, i64 %6
  %48 = load i32, ptr %47, align 4, !tbaa !19
  %49 = add nsw i32 %48, 1
  store i32 %49, ptr %47, align 4, !tbaa !19
  %.pre.i = load ptr, ptr %16, align 8, !tbaa !15
  br label %thread-pre-split.thread.i

thread-pre-split.thread.i:                        ; preds = %45, %39, %thread-pre-split.i, %26
  %50 = phi ptr [ %.pre.i, %45 ], [ %20, %39 ], [ %20, %thread-pre-split.i ], [ %20, %26 ]
  %51 = getelementptr inbounds ptr, ptr %50, i64 %9
  %52 = load ptr, ptr %51, align 8, !tbaa !16
  %53 = getelementptr inbounds nuw i8, ptr %52, i64 %indvars.iv.i
  %54 = load i8, ptr %53, align 1, !tbaa !17
  %55 = icmp eq i8 %54, 1
  br i1 %55, label %56, label %57

56:                                               ; preds = %thread-pre-split.thread.i
  store i8 0, ptr %53, align 1, !tbaa !17
  br label %57

57:                                               ; preds = %56, %thread-pre-split.thread.i
  %indvars.iv.next.i = add nuw nsw i64 %indvars.iv.i, 1
  %58 = load i32, ptr %13, align 8, !tbaa !3
  %59 = sext i32 %58 to i64
  %60 = icmp slt i64 %indvars.iv.next.i, %59
  br i1 %60, label %19, label %Llb_MtrCombineSelectedColumns.exit, !llvm.loop !51

Llb_MtrCombineSelectedColumns.exit:               ; preds = %57, %3
  %61 = getelementptr inbounds nuw i8, ptr %0, i64 16
  %62 = load ptr, ptr %61, align 8, !tbaa !24
  %63 = getelementptr inbounds i32, ptr %62, i64 %9
  store i32 0, ptr %63, align 4, !tbaa !19
  %64 = load ptr, ptr %4, align 8, !tbaa !52
  %65 = getelementptr inbounds ptr, ptr %64, i64 %6
  store ptr %12, ptr %65, align 8, !tbaa !53
  %66 = getelementptr inbounds ptr, ptr %64, i64 %9
  store ptr null, ptr %66, align 8, !tbaa !53
  ret void
}